target datalayout = "e-m:e-p270:32:32-p271:32:32-p272:64:64-i64:64-i128:128-f80:128-n8:16:32:64-S128"
target triple = "x86_64-pc-linux-gnu"

@.str.5 = private unnamed_addr constant [33 x i8] c"../openssl/test/quic_wire_test.c\00", align 1
@.str.23 = private unnamed_addr constant [9 x i8] c"fail < 0\00", align 1
@.str.55 = private unnamed_addr constant [7 x i8] c"0x1234\00", align 1
@.str.77 = private unnamed_addr constant [9 x i8] c"max_data\00", align 1
@.str.97 = private unnamed_addr constant [57 x i8] c"ossl_quic_wire_decode_frame_data_blocked(pkt, &max_data)\00", align 1

; Function Attrs: nounwind uwtable
define internal i32 @encode_case_13_dec(ptr noundef %0, i64 noundef %1) #0 {
  %3 = alloca i32, align 4
  %4 = alloca ptr, align 8
  %5 = alloca i64, align 8
  %6 = alloca i64, align 8
  %7 = alloca i32, align 4
  store ptr %0, ptr %4, align 8, !tbaa !40
  store i64 %1, ptr %5, align 8, !tbaa !19
  call void @llvm.lifetime.start.p0(i64 8, ptr %6) #5
  store i64 0, ptr %6, align 8, !tbaa !19
  %8 = load ptr, ptr %4, align 8, !tbaa !40
  %9 = call i32 @ossl_quic_wire_decode_frame_data_blocked(ptr noundef %8, ptr noundef %6)
  %10 = load i64, ptr %5, align 8, !tbaa !19
  %11 = icmp slt i64 %10, 0
  %12 = zext i1 %11 to i32
  %13 = call i32 @test_int_eq(ptr noundef @.str.5, i32 noundef 608, ptr noundef @.str.97, ptr noundef @.str.23, i32 noundef %9, i32 noundef %12)
  %14 = icmp ne i32 %13, 0
  br i1 %14, label %16, label %15

15:                                               ; preds = %2
  store i32 0, ptr %3, align 4
  store i32 1, ptr %7, align 4
  br label %26

16:                                               ; preds = %2
  %17 = load i64, ptr %5, align 8, !tbaa !19
  %18 = icmp sge i64 %17, 0
  br i1 %18, label %19, label %20

19:                                               ; preds = %16
  store i32 1, ptr %3, align 4
  store i32 1, ptr %7, align 4
  br label %26

20:                                               ; preds = %16
  %21 = load i64, ptr %6, align 8, !tbaa !19
  %22 = call i32 @test_uint64_t_eq(ptr noundef @.str.5, i32 noundef 614, ptr noundef @.str.77, ptr noundef @.str.55, i64 noundef %21, i64 noundef 4660)
  %23 = icmp ne i32 %22, 0
  br i1 %23, label %25, label %24

24:                                               ; preds = %20
  store i32 0, ptr %3, align 4
  store i32 1, ptr %7, align 4
  br label %26

25:                                               ; preds = %20
  store i32 1, ptr %3, align 4
  store i32 1, ptr %7, align 4
  br label %26

26:                                               ; preds = %25, %24, %19, %15
  call void @llvm.lifetime.end.p0(i64 8, ptr %6) #5
  %27 = load i32, ptr %3, align 4
  ret i32 %27
}